target datalayout = "e-m:e-p270:32:32-p271:32:32-p272:64:64-i64:64-i128:128-f80:128-n8:16:32:64-S128"
target triple = "x86_64-pc-linux-gnu"

%struct.MvcCubeStruct = type { ptr, i32, i32, [1 x i32] }
%struct.MvcCoverStruct = type { i32, i32, i32, %struct.MvcListStruct, ptr, i32, ptr, ptr, ptr }
%struct.MvcListStruct = type { ptr, ptr, i32 }

; Function Attrs: nounwind uwtable
define i32 @Mvc_CoverSetCubeSizes(ptr noundef %0) #0 {
  %2 = alloca ptr, align 8
  %3 = alloca ptr, align 8
  %4 = alloca ptr, align 8
  %5 = alloca ptr, align 8
  %6 = alloca ptr, align 8
  %7 = alloca i32, align 4
  %8 = alloca i32, align 4
  store ptr %0, ptr %2, align 8, !tbaa !3
  call void @llvm.lifetime.start.p0(i64 8, ptr %3) #3
  call void @llvm.lifetime.start.p0(i64 8, ptr %4) #3
  call void @llvm.lifetime.start.p0(i64 8, ptr %5) #3
  call void @llvm.lifetime.start.p0(i64 8, ptr %6) #3
  call void @llvm.lifetime.start.p0(i64 4, ptr %7) #3
  call void @llvm.lifetime.start.p0(i64 4, ptr %8) #3
  %9 = load ptr, ptr %2, align 8, !tbaa !3
  %10 = getelementptr inbounds nuw %struct.MvcCoverStruct, ptr %9, i32 0, i32 0
  %11 = load i32, ptr %10, align 8, !tbaa !42
  %12 = sext i32 %11 to i64
  %13 = mul i64 4, %12
  %14 = trunc i64 %13 to i32
  store i32 %14, ptr %7, align 4, !tbaa !10
  %15 = load ptr, ptr %2, align 8, !tbaa !3
  %16 = getelementptr inbounds nuw %struct.MvcCoverStruct, ptr %15, i32 0, i32 3
  %17 = getelementptr inbounds nuw %struct.MvcListStruct, ptr %16, i32 0, i32 0
  %18 = load ptr, ptr %17, align 8, !tbaa !14
  store ptr %18, ptr %3, align 8, !tbaa !8
  br label %19

19:                                               ; preds = %50, %1
  %20 = load ptr, ptr %3, align 8, !tbaa !8
  %21 = icmp ne ptr %20, null
  br i1 %21, label %22, label %54

22:                                               ; preds = %19
  store i32 0, ptr %8, align 4, !tbaa !10
  %23 = load ptr, ptr %3, align 8, !tbaa !8
  %24 = getelementptr inbounds nuw %struct.MvcCubeStruct, ptr %23, i32 0, i32 3
  %25 = getelementptr inbounds [1 x i32], ptr %24, i64 0, i64 0
  store ptr %25, ptr %5, align 8, !tbaa !43
  %26 = load ptr, ptr %5, align 8, !tbaa !43
  %27 = load i32, ptr %7, align 4, !tbaa !10
  %28 = sext i32 %27 to i64
  %29 = getelementptr inbounds i8, ptr %26, i64 %28
  store ptr %29, ptr %6, align 8, !tbaa !43
  %30 = load ptr, ptr %5, align 8, !tbaa !43
  store ptr %30, ptr %4, align 8, !tbaa !43
  br label %31

31:                                               ; preds = %43, %22
  %32 = load ptr, ptr %4, align 8, !tbaa !43
  %33 = load ptr, ptr %6, align 8, !tbaa !43
  %34 = icmp ult ptr %32, %33
  br i1 %34, label %35, label %46

35:                                               ; preds = %31
  %36 = load ptr, ptr %4, align 8, !tbaa !43
  %37 = load i8, ptr %36, align 1, !tbaa !45
  %38 = zext i8 %37 to i64
  %39 = getelementptr inbounds nuw [256 x i32], ptr @bit_count, i64 0, i64 %38
  %40 = load i32, ptr %39, align 4, !tbaa !10
  %41 = load i32, ptr %8, align 4, !tbaa !10
  %42 = add nsw i32 %41, %40
  store i32 %42, ptr %8, align 4, !tbaa !10
  br label %43

43:                                               ; preds = %35
  %44 = load ptr, ptr %4, align 8, !tbaa !43
  %45 = getelementptr inbounds nuw i8, ptr %44, i32 1
  store ptr %45, ptr %4, align 8, !tbaa !43
  br label %31, !llvm.loop !46

46:                                               ; preds = %31
  %47 = load i32, ptr %8, align 4, !tbaa !10
  %48 = load ptr, ptr %3, align 8, !tbaa !8
  %49 = getelementptr inbounds nuw %struct.MvcCubeStruct, ptr %48, i32 0, i32 2
  store i32 %47, ptr %49, align 4, !tbaa !47
  br label %50

50:                                               ; preds = %46
  %51 = load ptr, ptr %3, align 8, !tbaa !8
  %52 = getelementptr inbounds nuw %struct.MvcCubeStruct, ptr %51, i32 0, i32 0
  %53 = load ptr, ptr %52, align 8, !tbaa !21
  store ptr %53, ptr %3, align 8, !tbaa !8
  br label %19, !llvm.loop !48

54:                                               ; preds = %19
  call void @llvm.lifetime.end.p0(i64 4, ptr %8) #3
  call void @llvm.lifetime.end.p0(i64 4, ptr %7) #3
  call void @llvm.lifetime.end.p0(i64 8, ptr %6) #3
  call void @llvm.lifetime.end.p0(i64 8, ptr %5) #3
  call void @llvm.lifetime.end.p0(i64 8, ptr %4) #3
  call void @llvm.lifetime.end.p0(i64 8, ptr %3) #3
  ret i32 1
}