; Function Attrs: nofree norecurse nosync nounwind memory(readwrite, inaccessiblemem: none) uwtable
define noundef i32 @Mvc_CoverSetCubeSizes(ptr noundef readonly captures(none) %0) local_unnamed_addr #3 {
  %2 = getelementptr inbounds nuw i8, ptr %0, i64 16
  %.01418 = load ptr, ptr %2, align 8, !tbaa !7
  %.not19 = icmp eq ptr %.01418, null
  br i1 %.not19, label %._crit_edge23, label %.lr.ph22

.lr.ph22:                                         ; preds = %1
  %3 = load i32, ptr %0, align 8, !tbaa !34
  %4 = shl i32 %3, 2
  %5 = sext i32 %4 to i64
  %6 = icmp sgt i32 %4, 0
  br label %7

7:                                                ; preds = %.lr.ph22, %._crit_edge
  %.01420 = phi ptr [ %.01418, %.lr.ph22 ], [ %.014, %._crit_edge ]
  %8 = getelementptr i8, ptr %.01420, i64 %5
  %.ptr24 = getelementptr i8, ptr %8, i64 16
  br i1 %6, label %.lr.ph.preheader, label %._crit_edge

.lr.ph.preheader:                                 ; preds = %7
  %.ptr = getelementptr inbounds nuw i8, ptr %.01420, i64 16
  br label %.lr.ph

.lr.ph:                                           ; preds = %.lr.ph.preheader, %.lr.ph
  %.017 = phi i32 [ %13, %.lr.ph ], [ 0, %.lr.ph.preheader ]
  %.01516 = phi ptr [ %14, %.lr.ph ], [ %.ptr, %.lr.ph.preheader ]
  %9 = load i8, ptr %.01516, align 1, !tbaa !35
  %10 = zext i8 %9 to i64
  %11 = getelementptr inbounds nuw [256 x i32], ptr @bit_count, i64 0, i64 %10
  %12 = load i32, ptr %11, align 4, !tbaa !3
  %13 = add nsw i32 %12, %.017
  %14 = getelementptr inbounds nuw i8, ptr %.01516, i64 1
  %15 = icmp ult ptr %14, %.ptr24
  br i1 %15, label %.lr.ph, label %._crit_edge, !llvm.loop !36

._crit_edge:                                      ; preds = %.lr.ph, %7
  %.0.lcssa = phi i32 [ 0, %7 ], [ %13, %.lr.ph ]
  %16 = getelementptr inbounds nuw i8, ptr %.01420, i64 12
  store i32 %.0.lcssa, ptr %16, align 4, !tbaa !37
  %.014 = load ptr, ptr %.01420, align 8, !tbaa !7
  %.not = icmp eq ptr %.014, null
  br i1 %.not, label %._crit_edge23, label %7, !llvm.loop !38

._crit_edge23:                                    ; preds = %._crit_edge, %1
  ret i32 1
}